target datalayout = "e-m:e-p270:32:32-p271:32:32-p272:64:64-i64:64-i128:128-f80:128-n8:16:32:64-S128"
target triple = "x86_64-pc-linux-gnu"

%struct.ossl_qtx_st = type { ptr, ptr, %struct.ossl_qrl_enc_level_set_st, ptr, ptr, ptr, i64, %struct.ossl_list_st_txe, %struct.ossl_list_st_txe, i64, i64, ptr, i64, i64, i64, ptr, ptr, ptr, ptr, ptr, ptr }
%struct.ossl_qrl_enc_level_set_st = type { [4 x %struct.ossl_qrl_enc_level_st] }
%struct.ossl_qrl_enc_level_st = type { %struct.quic_hdr_protector_st, ptr, [2 x ptr], ptr, ptr, i64, i64, i32, i32, i8, i8, [2 x [16 x i8]], [64 x i8] }
%struct.quic_hdr_protector_st = type { ptr, ptr, ptr, ptr, i32 }
%struct.ossl_list_st_txe = type { ptr, ptr, i64 }
%struct.txe_st = type { %struct.anon, i64, i64, %union.bio_addr_st, %union.bio_addr_st }
%struct.anon = type { ptr, ptr }
%union.bio_addr_st = type { %struct.sockaddr_in6, [84 x i8] }
%struct.sockaddr_in6 = type { i16, i16, i32, %struct.in6_addr, i32 }
%struct.in6_addr = type { %union.anon }
%union.anon = type { [4 x i32] }

; Function Attrs: nounwind uwtable
define i64 @ossl_qtx_get_cur_dgram_len_bytes(ptr noundef %0) #0 {
  %2 = alloca ptr, align 8
  store ptr %0, ptr %2, align 8, !tbaa !14
  %3 = load ptr, ptr %2, align 8, !tbaa !14
  %4 = getelementptr inbounds nuw %struct.ossl_qtx_st, ptr %3, i32 0, i32 11
  %5 = load ptr, ptr %4, align 8, !tbaa !32
  %6 = icmp ne ptr %5, null
  br i1 %6, label %7, label %13

7:                                                ; preds = %1
  %8 = load ptr, ptr %2, align 8, !tbaa !14
  %9 = getelementptr inbounds nuw %struct.ossl_qtx_st, ptr %8, i32 0, i32 11
  %10 = load ptr, ptr %9, align 8, !tbaa !32
  %11 = getelementptr inbounds nuw %struct.txe_st, ptr %10, i32 0, i32 1
  %12 = load i64, ptr %11, align 8, !tbaa !66
  br label %14

13:                                               ; preds = %1
  br label %14

14:                                               ; preds = %13, %7
  %15 = phi i64 [ %12, %7 ], [ 0, %13 ]
  ret i64 %15
}