; Function Attrs: mustprogress nofree norecurse nosync nounwind willreturn memory(read, inaccessiblemem: none) uwtable
define i64 @ossl_qtx_get_cur_dgram_len_bytes(ptr noundef readonly captures(none) %0) local_unnamed_addr #7 {
  %2 = getelementptr inbounds nuw i8, ptr %0, i64 944
  %3 = load ptr, ptr %2, align 8, !tbaa !34
  %.not = icmp eq ptr %3, null
  br i1 %.not, label %7, label %4

4:                                                ; preds = %1
  %5 = getelementptr inbounds nuw i8, ptr %3, i64 16
  %6 = load i64, ptr %5, align 8, !tbaa !53
  br label %7

7:                                                ; preds = %1, %4
  %8 = phi i64 [ %6, %4 ], [ 0, %1 ]
  ret i64 %8
}